; Function Attrs: mustprogress nofree norecurse nosync nounwind willreturn memory(argmem: readwrite) uwtable
define dso_local void @_ZN23btReducedDeformableBody12applyDampingEf(ptr noundef nonnull align 8 captures(none) dereferenceable(3176) %0, float noundef %1) local_unnamed_addr #11 align 2 {
  %3 = getelementptr inbounds nuw i8, ptr %0, i64 2392
  %4 = load float, ptr %3, align 8, !tbaa !141
  %5 = fsub float 1.000000e+00, %4
  %6 = getelementptr inbounds nuw i8, ptr %0, i64 2360
  %7 = load float, ptr %6, align 8, !tbaa !138
  %8 = fmul float %5, %7
  store float %8, ptr %6, align 8, !tbaa !138
  %9 = getelementptr inbounds nuw i8, ptr %0, i64 2364
  %10 = load float, ptr %9, align 4, !tbaa !138
  %11 = fmul float %5, %10
  store float %11, ptr %9, align 4, !tbaa !138
  %12 = getelementptr inbounds nuw i8, ptr %0, i64 2368
  %13 = load float, ptr %12, align 8, !tbaa !138
  %14 = fmul float %5, %13
  store float %14, ptr %12, align 8, !tbaa !138
  %15 = getelementptr inbounds nuw i8, ptr %0, i64 2396
  %16 = load float, ptr %15, align 4, !tbaa !142
  %17 = fsub float 1.000000e+00, %16
  %18 = fmul float %16, %17
  store float %18, ptr %15, align 4, !tbaa !142
  ret void
}